; Function Attrs: mustprogress uwtable
define noundef nonnull align 8 dereferenceable(64) ptr @_ZNK6icu_7517QuantityFormatter6formatERKNS_11FormattableERKNS_12NumberFormatERKNS_11PluralRulesERNS_13UnicodeStringERNS_13FieldPositionER10UErrorCode(ptr nocapture noundef nonnull readonly align 8 dereferenceable(64) %this, ptr noundef nonnull align 8 dereferenceable(112) %number, ptr noundef nonnull align 8 dereferenceable(356) %fmt, ptr noundef nonnull align 8 dereferenceable(28) %rules, ptr noundef nonnull returned align 8 dereferenceable(64) %appendTo, ptr noundef nonnull align 8 dereferenceable(20) %pos, ptr noundef nonnull align 4 dereferenceable(4) %status) local_unnamed_addr #1 align 2 personality ptr @__gxx_personality_v0 {
entry:
  %param.i = alloca ptr, align 8
  %offset.i = alloca i32, align 4
  %formattedNumber = alloca %"class.icu_75::UnicodeString", align 8
  store ptr getelementptr inbounds ({ [13 x ptr] }, ptr @_ZTVN6icu_7513UnicodeStringE, i64 0, i32 0, i64 2), ptr %formattedNumber, align 8
  %fUnion2.i = getelementptr inbounds i8, ptr %formattedNumber, i64 8
  store i16 2, ptr %fUnion2.i, align 8
  %call = invoke noundef i32 @_ZN6icu_7517QuantityFormatter12selectPluralERKNS_11FormattableERKNS_12NumberFormatERKNS_11PluralRulesERNS_13UnicodeStringERNS_13FieldPositionER10UErrorCode(ptr noundef nonnull align 8 dereferenceable(112) %number, ptr noundef nonnull align 8 dereferenceable(356) %fmt, ptr noundef nonnull align 8 dereferenceable(28) %rules, ptr noundef nonnull align 8 dereferenceable(64) %formattedNumber, ptr noundef nonnull align 8 dereferenceable(20) %pos, ptr noundef nonnull align 4 dereferenceable(4) %status)
          to label %invoke.cont unwind label %lpad

invoke.cont:                                      ; preds = %entry
  %0 = load i32, ptr %status, align 4
  %cmp.i = icmp slt i32 %0, 1
  br i1 %cmp.i, label %if.end, label %cleanup

lpad:                                             ; preds = %if.end10, %entry
  %1 = landingpad { ptr, i32 }
          cleanup
  call void @_ZN6icu_7513UnicodeStringD1Ev(ptr noundef nonnull align 8 dereferenceable(64) %formattedNumber) #13
  resume { ptr, i32 } %1

if.end:                                           ; preds = %invoke.cont
  %idxprom = zext i32 %call to i64
  %arrayidx = getelementptr inbounds [8 x ptr], ptr %this, i64 0, i64 %idxprom
  %2 = load ptr, ptr %arrayidx, align 8
  %cmp = icmp eq ptr %2, null
  br i1 %cmp, label %if.then4, label %if.end10

if.then4:                                         ; preds = %if.end
  %arrayidx6 = getelementptr inbounds i8, ptr %this, i64 40
  %3 = load ptr, ptr %arrayidx6, align 8
  %cmp7 = icmp eq ptr %3, null
  br i1 %cmp7, label %if.then8, label %if.end10

if.then8:                                         ; preds = %if.then4
  store i32 27, ptr %status, align 4
  br label %cleanup

if.end10:                                         ; preds = %if.then4, %if.end
  %pattern.0 = phi ptr [ %3, %if.then4 ], [ %2, %if.end ]
  call void @llvm.lifetime.start.p0(i64 8, ptr nonnull %param.i)
  call void @llvm.lifetime.start.p0(i64 4, ptr nonnull %offset.i)
  store ptr %formattedNumber, ptr %param.i, align 8
  %call1.i10 = invoke noundef nonnull align 8 dereferenceable(64) ptr @_ZNK6icu_7515SimpleFormatter15formatAndAppendEPKPKNS_13UnicodeStringEiRS1_PiiR10UErrorCode(ptr noundef nonnull align 8 dereferenceable(72) %pattern.0, ptr noundef nonnull %param.i, i32 noundef 1, ptr noundef nonnull align 8 dereferenceable(64) %appendTo, ptr noundef nonnull %offset.i, i32 noundef 1, ptr noundef nonnull align 4 dereferenceable(4) %status)
          to label %call1.i.noexc unwind label %lpad

call1.i.noexc:                                    ; preds = %if.end10
  %fBeginIndex.i.i = getelementptr inbounds i8, ptr %pos, i64 12
  %4 = load i32, ptr %fBeginIndex.i.i, align 4
  %cmp.not.i = icmp eq i32 %4, 0
  %fEndIndex.i.i = getelementptr inbounds i8, ptr %pos, i64 16
  %5 = load i32, ptr %fEndIndex.i.i, align 8
  %cmp4.not.i = icmp eq i32 %5, 0
  %or.cond.i = select i1 %cmp.not.i, i1 %cmp4.not.i, i1 false
  br i1 %or.cond.i, label %_ZN6icu_7517QuantityFormatter6formatERKNS_15SimpleFormatterERKNS_13UnicodeStringERS4_RNS_13FieldPositionER10UErrorCode.exit, label %if.then5.i

if.then5.i:                                       ; preds = %call1.i.noexc
  %6 = load i32, ptr %offset.i, align 4
  %cmp6.i = icmp sgt i32 %6, -1
  %add.i = add nsw i32 %6, %4
  %add10.i = add nsw i32 %6, %5
  %.sink = select i1 %cmp6.i, i32 %add.i, i32 0
  %.sink.i = select i1 %cmp6.i, i32 %add10.i, i32 0
  store i32 %.sink, ptr %fBeginIndex.i.i, align 4
  store i32 %.sink.i, ptr %fEndIndex.i.i, align 8
  br label %_ZN6icu_7517QuantityFormatter6formatERKNS_15SimpleFormatterERKNS_13UnicodeStringERS4_RNS_13FieldPositionER10UErrorCode.exit

_ZN6icu_7517QuantityFormatter6formatERKNS_15SimpleFormatterERKNS_13UnicodeStringERS4_RNS_13FieldPositionER10UErrorCode.exit: ; preds = %call1.i.noexc, %if.then5.i
  call void @llvm.lifetime.end.p0(i64 8, ptr nonnull %param.i)
  call void @llvm.lifetime.end.p0(i64 4, ptr nonnull %offset.i)
  br label %cleanup

cleanup:                                          ; preds = %_ZN6icu_7517QuantityFormatter6formatERKNS_15SimpleFormatterERKNS_13UnicodeStringERS4_RNS_13FieldPositionER10UErrorCode.exit, %invoke.cont, %if.then8
  call void @_ZN6icu_7513UnicodeStringD1Ev(ptr noundef nonnull align 8 dereferenceable(64) %formattedNumber) #13
  ret ptr %appendTo
}